(lp0
(dp1
S'etaChangeDepth'
p2
cpint
_build_quantity
p3
(F660.0
ccopy_reg
_reconstructor
p4
(cpint.util
UnitsContainer
p5
c__builtin__
object
p6
Ntp7
Rp8
(dp9
V_d
p10
g4
(cpint.util
udict
p11
c__builtin__
dict
p12
(dp13
Vkilometer
p14
F1.0
stp15
Rp16
sV_hash
p17
I-4412262003307283843
sbtp18
Rp19
sS'shape'
p20
(lp21
(F0.0
F0.0
tp22
a(F4.0
F0.0
tp23
a(F4.0
F-1.0
tp24
a(F0.0
F-1.0
tp25
asS'eta0'
p26
g3
(F5e+20
g4
(g5
g6
Ntp27
Rp28
(dp29
g10
g4
(g11
g12
(dp30
Vpascal
p31
F1.0
sVsecond
p32
F1.0
stp33
Rp34
sg17
I-5591898877647841442
sbtp35
Rp36
sS'name'
p37
S'Mantle'
p38
sS'density'
p39
S'deptDependent'
p40
sS'rho1'
p41
g3
(F3230.0
g4
(g5
g6
Ntp42
Rp43
(dp44
g10
g4
(g11
g12
(dp45
Vmeter
p46
F-3.0
sVkilogram
p47
F1.0
stp48
Rp49
sg17
I-3288824393776739998
sbtp50
Rp51
sS'rho0'
p52
g3
(F3200.0
g4
(g5
g6
Ntp53
Rp54
(dp55
g10
g4
(g11
g12
(dp56
g46
F-3.0
sg47
F1.0
stp57
Rp58
sg17
I-3288824393776739998
sbtp59
Rp60
sS'viscosity'
p61
g40
sS'rhoChangeDepth'
p62
g3
(F660.0
g4
(g5
g6
Ntp63
Rp64
(dp65
g10
g4
(g11
g12
(dp66
g14
F1.0
stp67
Rp68
sg17
I-4412262003307283843
sbtp69
Rp70
sS'eta1'
p71
g3
(F5e+22
g4
(g5
g6
Ntp72
Rp73
(dp74
g10
g4
(g11
g12
(dp75
g31
F1.0
sg32
F1.0
stp76
Rp77
sg17
I-5591898877647841442
sbtp78
Rp79
sa(dp80
S'cohesion'
p81
g3
(F6.0
g4
(g5
g6
Ntp82
Rp83
(dp84
g10
g4
(g11
g12
(dp85
Vmegapascal
p86
F1.0
stp87
Rp88
sg17
I1012745708474633402
sbtp89
Rp90
sg20
(lp91
(F0.7250000000000001
F0.0
tp92
a(cnumpy.core.multiarray
scalar
p93
(cnumpy
dtype
p94
(S'f8'
p95
I0
I1
tp96
Rp97
(I3
S'<'
p98
NNNI-1
I-1
I0
tp99
bS'\xff\xb7\xb8\xe1\x9a\xee\xea?'
p100
tp101
Rp102
F0.0
tp103
a(F2.0
F0.0
tp104
a(g93
(g97
S'`\xc5I\x06\xf2\x99\x00@'
p105
tp106
Rp107
F-0.04166666666666667
tp108
a(g93
(g97
S'`\xc5I\x06\xf2\x99\x00@'
p109
tp110
Rp111
F-0.04687500000000001
tp112
a(F2.0
F-0.005208333333333334
tp113
a(g93
(g97
S'\xff\xb7\xb8\xe1\x9a\xee\xea?'
p114
tp115
Rp116
F-0.005208333333333334
tp117
asg61
g3
(F5e+22
g4
(g5
g6
Ntp118
Rp119
(dp120
g10
g4
(g11
g12
(dp121
g31
F1.0
sg32
F1.0
stp122
Rp123
sg17
I-5591898877647841442
sbtp124
Rp125
sg37
S'Uppper Crust Indo-Australian Plate'
p126
sg39
g3
(F3280.0
g4
(g5
g6
Ntp127
Rp128
(dp129
g10
g4
(g11
g12
(dp130
g46
F-3.0
sg47
F1.0
stp131
Rp132
sg17
I-3288824393776739998
sbtp133
Rp134
sa(dp135
g81
g3
(F30.0
g4
(g5
g6
Ntp136
Rp137
(dp138
g10
g4
(g11
g12
(dp139
g86
F1.0
stp140
Rp141
sg17
I1012745708474633402
sbtp142
Rp143
sg20
(lp144
(F0.7250000000000001
F0.0
tp145
a(g93
(g97
S'\xff\xb7\xb8\xe1\x9a\xee\xea?'
p146
tp147
Rp148
F-0.005208333333333334
tp149
a(F2.0
F-0.005208333333333334
tp150
a(g93
(g97
S'`\xc5I\x06\xf2\x99\x00@'
p151
tp152
Rp153
F-0.04687500000000001
tp154
a(g93
(g97
S'`\xc5I\x06\xf2\x99\x00@'
p155
tp156
Rp157
F-0.05208333333333334
tp158
a(F2.0
F-0.010416666666666668
tp159
a(g93
(g97
S'\xff\xb7\xb8\xe1\x9a\xee\xea?'
p160
tp161
Rp162
F-0.010416666666666668
tp163
asg61
g3
(F5e+23
g4
(g5
g6
Ntp164
Rp165
(dp166
g10
g4
(g11
g12
(dp167
g31
F1.0
sg32
F1.0
stp168
Rp169
sg17
I-5591898877647841442
sbtp170
Rp171
sg37
S'Lower Crust Indo-Australian Plate'
p172
sg39
g3
(F3280.0
g4
(g5
g6
Ntp173
Rp174
(dp175
g10
g4
(g11
g12
(dp176
g46
F-3.0
sg47
F1.0
stp177
Rp178
sg17
I-3288824393776739998
sbtp179
Rp180
sa(dp181
g81
g3
(F400.0
g4
(g5
g6
Ntp182
Rp183
(dp184
g10
g4
(g11
g12
(dp185
g86
F1.0
stp186
Rp187
sg17
I1012745708474633402
sbtp188
Rp189
sg20
(lp190
(F0.7250000000000001
F0.0
tp191
a(g93
(g97
S'\xff\xb7\xb8\xe1\x9a\xee\xea?'
p192
tp193
Rp194
F-0.010416666666666668
tp195
a(F2.0
F-0.010416666666666668
tp196
a(g93
(g97
S'`\xc5I\x06\xf2\x99\x00@'
p197
tp198
Rp199
F-0.05208333333333334
tp200
a(g93
(g97
S'`\xc5I\x06\xf2\x99\x00@'
p201
tp202
Rp203
F-0.06250000000000001
tp204
a(F2.0
F-0.020833333333333336
tp205
a(g93
(g97
S'\xff\xb7\xb8\xe1\x9a\xee\xea?'
p206
tp207
Rp208
F-0.020833333333333336
tp209
asg61
g3
(F5e+25
g4
(g5
g6
Ntp210
Rp211
(dp212
g10
g4
(g11
g12
(dp213
g31
F1.0
sg32
F1.0
stp214
Rp215
sg17
I-5591898877647841442
sbtp216
Rp217
sg37
S'Lithospheric Mantle Crust Indo-Australian Plate'
p218
sg39
g3
(F3280.0
g4
(g5
g6
Ntp219
Rp220
(dp221
g10
g4
(g11
g12
(dp222
g46
F-3.0
sg47
F1.0
stp223
Rp224
sg17
I-3288824393776739998
sbtp225
Rp226
sa(dp227
g81
g3
(F30.0
g4
(g5
g6
Ntp228
Rp229
(dp230
g10
g4
(g11
g12
(dp231
g86
F1.0
stp232
Rp233
sg17
I1012745708474633402
sbtp234
Rp235
sg20
(lp236
(F0.7250000000000001
F0.0
tp237
a(g93
(g97
S'\xff\xb7\xb8\xe1\x9a\xee\xea?'
p238
tp239
Rp240
F-0.020833333333333336
tp241
a(F2.0
F-0.020833333333333336
tp242
a(g93
(g97
S'`\xc5I\x06\xf2\x99\x00@'
p243
tp244
Rp245
F-0.0625
tp246
a(g93
(g97
S'`\xc5I\x06\xf2\x99\x00@'
p247
tp248
Rp249
F-0.07291666666666667
tp250
a(F2.0
F-0.03125
tp251
a(g93
(g97
S'\xff\xb7\xb8\xe1\x9a\xee\xea?'
p252
tp253
Rp254
F-0.03125
tp255
asg61
g3
(F2.5e+23
g4
(g5
g6
Ntp256
Rp257
(dp258
g10
g4
(g11
g12
(dp259
g31
F1.0
sg32
F1.0
stp260
Rp261
sg17
I-5591898877647841442
sbtp262
Rp263
sg37
S'Lithospheric Mantle Indo-Australian Plate'
p264
sg39
g3
(F3280.0
g4
(g5
g6
Ntp265
Rp266
(dp267
g10
g4
(g11
g12
(dp268
g46
F-3.0
sg47
F1.0
stp269
Rp270
sg17
I-3288824393776739998
sbtp271
Rp272
sa(dp273
g81
g3
(F6.0
g4
(g5
g6
Ntp274
Rp275
(dp276
g10
g4
(g11
g12
(dp277
g86
F1.0
stp278
Rp279
sg17
I1012745708474633402
sbtp280
Rp281
sg20
(lp282
(lp283
g93
(g97
S'333333\xd3?'
p284
tp285
Rp286
aF0.0
aa(lp287
g93
(g97
S'gfffff\xf2?'
p288
tp289
Rp290
aF0.0
aa(lp291
g93
(g97
S'\xd2n\xf1$\xbe$\xf2?'
p292
tp293
Rp294
aF-0.005208333333333334
aa(lp295
g93
(g97
S'\x142\xb7i\xa9\xc4\xd4?'
p296
tp297
Rp298
aF-0.005208333333333334
aasg61
g3
(F5e+22
g4
(g5
g6
Ntp299
Rp300
(dp301
g10
g4
(g11
g12
(dp302
g31
F1.0
sg32
F1.0
stp303
Rp304
sg17
I-5591898877647841442
sbtp305
Rp306
sg37
S'Upper Crust Indian Indentor'
p307
sg39
g3
(F2800.0
g4
(g5
g6
Ntp308
Rp309
(dp310
g10
g4
(g11
g12
(dp311
g46
F-3.0
sg47
F1.0
stp312
Rp313
sg17
I-3288824393776739998
sbtp314
Rp315
sa(dp316
g81
g3
(F30.0
g4
(g5
g6
Ntp317
Rp318
(dp319
g10
g4
(g11
g12
(dp320
g86
F1.0
stp321
Rp322
sg17
I1012745708474633402
sbtp323
Rp324
sg20
(lp325
(lp326
g93
(g97
S'\x142\xb7i\xa9\xc4\xd4?'
p327
tp328
Rp329
aF-0.005208333333333334
aa(lp330
g93
(g97
S'\xd2n\xf1$\xbe$\xf2?'
p331
tp332
Rp333
aF-0.005208333333333334
aa(lp334
g93
(g97
S'>w|\xe3\x15\xe3\xf1?'
p335
tp336
Rp337
aF-0.010416666666666668
aa(lp338
g93
(g97
S'\xf50;\xa0\x1fV\xd6?'
p339
tp340
Rp341
aF-0.010416666666666668
aasg61
g3
(F5e+22
g4
(g5
g6
Ntp342
Rp343
(dp344
g10
g4
(g11
g12
(dp345
g31
F1.0
sg32
F1.0
stp346
Rp347
sg17
I-5591898877647841442
sbtp348
Rp349
sg37
S'Lower Crust Indian Indentor'
p350
sg39
g3
(F2800.0
g4
(g5
g6
Ntp351
Rp352
(dp353
g10
g4
(g11
g12
(dp354
g46
F-3.0
sg47
F1.0
stp355
Rp356
sg17
I-3288824393776739998
sbtp357
Rp358
sa(dp359
g81
g3
(F400.0
g4
(g5
g6
Ntp360
Rp361
(dp362
g10
g4
(g11
g12
(dp363
g86
F1.0
stp364
Rp365
sg17
I1012745708474633402
sbtp366
Rp367
sg20
(lp368
(lp369
g93
(g97
S'\xf50;\xa0\x1fV\xd6?'
p370
tp371
Rp372
aF-0.010416666666666668
aa(lp373
g93
(g97
S'>w|\xe3\x15\xe3\xf1?'
p374
tp375
Rp376
aF-0.010416666666666668
aa(lp377
g93
(g97
S'\x15\x88\x92`\xc5_\xf1?'
p378
tp379
Rp380
aF-0.020833333333333336
aa(lp381
g93
(g97
S'\xb7.C\r\x0cy\xd9?'
p382
tp383
Rp384
aF-0.020833333333333336
aasg61
g3
(F5e+25
g4
(g5
g6
Ntp385
Rp386
(dp387
g10
g4
(g11
g12
(dp388
g31
F1.0
sg32
F1.0
stp389
Rp390
sg17
I-5591898877647841442
sbtp391
Rp392
sg37
S'Lithospheric Mantle Indian Indentor'
p393
sg39
g3
(F3200.0
g4
(g5
g6
Ntp394
Rp395
(dp396
g10
g4
(g11
g12
(dp397
g46
F-3.0
sg47
F1.0
stp398
Rp399
sg17
I-3288824393776739998
sbtp400
Rp401
sa(dp402
g81
g3
(F30.0
g4
(g5
g6
Ntp403
Rp404
(dp405
g10
g4
(g11
g12
(dp406
g86
F1.0
stp407
Rp408
sg17
I1012745708474633402
sbtp409
Rp410
sg20
(lp411
(lp412
g93
(g97
S'\xb7.C\r\x0cy\xd9?'
p413
tp414
Rp415
aF-0.020833333333333336
aa(lp416
g93
(g97
S'\x15\x88\x92`\xc5_\xf1?'
p417
tp418
Rp419
aF-0.020833333333333336
aa(lp420
g93
(g97
S'\xec\x98\xa8\xddt\xdc\xf0?'
p421
tp422
Rp423
aF-0.03125
aa(lp424
g93
(g97
S'y,Kz\xf8\x9b\xdc?'
p425
tp426
Rp427
aF-0.03125
aasg61
g3
(F2.5e+25
g4
(g5
g6
Ntp428
Rp429
(dp430
g10
g4
(g11
g12
(dp431
g31
F1.0
sg32
F1.0
stp432
Rp433
sg17
I-5591898877647841442
sbtp434
Rp435
sg37
g393
sg39
g3
(F3220.0
g4
(g5
g6
Ntp436
Rp437
(dp438
g10
g4
(g11
g12
(dp439
g46
F-3.0
sg47
F1.0
stp440
Rp441
sg17
I-3288824393776739998
sbtp442
Rp443
sa(dp444
g20
(lp445
(F4.0
F0.0
tp446
a(g93
(g97
S'"\x96k\xf2;\x9f\x10@'
p447
tp448
Rp449
F0.0
tp450
a(g93
(g97
S'\x00\x00\x00\x00\x00\x00\x00@'
p451
tp452
Rp453
F0.0
tp454
a(g93
(g97
S'\xcbA\xc3\xacP3\x00@'
p455
tp456
Rp457
F-0.01388888888888889
tp458
a(g93
(g97
S'"\x96k\xf2;\x9f\x10@'
p459
tp460
Rp461
F-0.01388888888888889
tp462
asg61
g3
(F5e+23
g4
(g5
g6
Ntp463
Rp464
(dp465
g10
g4
(g11
g12
(dp466
g31
F1.0
sg32
F1.0
stp467
Rp468
sg17
I-5591898877647841442
sbtp469
Rp470
sg37
S'Crust Eurasian Plate ForeArc'
p471
sg39
g3
(F3200.0
g4
(g5
g6
Ntp472
Rp473
(dp474
g10
g4
(g11
g12
(dp475
g46
F-3.0
sg47
F1.0
stp476
Rp477
sg17
I-3288824393776739998
sbtp478
Rp479
sa(dp480
g20
(lp481
(F4.0
F0.0
tp482
a(g93
(g97
S'"\x96k\xf2;\x9f\x10@'
p483
tp484
Rp485
F-0.01388888888888889
tp486
a(g93
(g97
S'\xcbA\xc3\xacP3\x00@'
p487
tp488
Rp489
F-0.01388888888888889
tp490
a(g93
(g97
S'`\xc5I\x06\xf2\x99\x00@'
p491
tp492
Rp493
F-0.04166666666666667
tp494
a(g93
(g97
S'"\x96k\xf2;\x9f\x10@'
p495
tp496
Rp497
F-0.04166666666666667
tp498
asg61
g3
(F2.5e+23
g4
(g5
g6
Ntp499
Rp500
(dp501
g10
g4
(g11
g12
(dp502
g31
F1.0
sg32
F1.0
stp503
Rp504
sg17
I-5591898877647841442
sbtp505
Rp506
sg37
S'Lithospheric Mantle Eurasian Plate ForeArc'
p507
sg39
g3
(F3200.0
g4
(g5
g6
Ntp508
Rp509
(dp510
g10
g4
(g11
g12
(dp511
g46
F-3.0
sg47
F1.0
stp512
Rp513
sg17
I-3288824393776739998
sbtp514
Rp515
sa(dp516
g20
(lp517
(F4.0
F0.0
tp518
a(g93
(g97
S'\x00\x00\x00\x00\x00\x00\x10@'
p519
tp520
Rp521
F0.0
tp522
a(g93
(g97
S'\x00\x00\x00\x00\x00\x00\x01@'
p523
tp524
Rp525
F0.0
tp526
a(g93
(g97
S'\x00\x00\x00\x00\x00\x00\x01@'
p527
tp528
Rp529
F-0.01388888888888889
tp530
a(g93
(g97
S'\x00\x00\x00\x00\x00\x00\x10@'
p531
tp532
Rp533
F-0.01388888888888889
tp534
asg61
g3
(F2.5e+23
g4
(g5
g6
Ntp535
Rp536
(dp537
g10
g4
(g11
g12
(dp538
g31
F1.0
sg32
F1.0
stp539
Rp540
sg17
I-5591898877647841442
sbtp541
Rp542
sg37
S'Crust Eurasian Plate'
p543
sg39
g3
(F3200.0
g4
(g5
g6
Ntp544
Rp545
(dp546
g10
g4
(g11
g12
(dp547
g46
F-3.0
sg47
F1.0
stp548
Rp549
sg17
I-3288824393776739998
sbtp550
Rp551
sa(dp552
g20
(lp553
(F4.0
F0.0
tp554
a(g93
(g97
S'\x00\x00\x00\x00\x00\x00\x10@'
p555
tp556
Rp557
F-0.01388888888888889
tp558
a(g93
(g97
S'\x00\x00\x00\x00\x00\x00\x01@'
p559
tp560
Rp561
F-0.01388888888888889
tp562
a(g93
(g97
S'\x00\x00\x00\x00\x00\x00\x01@'
p563
tp564
Rp565
F-0.04166666666666667
tp566
a(g93
(g97
S'\x00\x00\x00\x00\x00\x00\x10@'
p567
tp568
Rp569
F-0.04166666666666667
tp570
asg61
g3
(F1e+23
g4
(g5
g6
Ntp571
Rp572
(dp573
g10
g4
(g11
g12
(dp574
g31
F1.0
sg32
F1.0
stp575
Rp576
sg17
I-5591898877647841442
sbtp577
Rp578
sg37
S'Lithospheric Mantle Eurasian Plate'
p579
sg39
g3
(F3200.0
g4
(g5
g6
Ntp580
Rp581
(dp582
g10
g4
(g11
g12
(dp583
g46
F-3.0
sg47
F1.0
stp584
Rp585
sg17
I-3288824393776739998
sbtp586
Rp587
sa.